; Function Attrs: mustprogress uwtable
define void @_ZN3gmx24CommandLineModuleManager19setOutputRedirectorEPNS_21IFileOutputRedirectorE(ptr nocapture noundef nonnull readonly align 8 dereferenceable(8) %0, ptr noundef %1) local_unnamed_addr #0 align 2 {
  %3 = load ptr, ptr %0, align 8
  tail call void @_ZN3gmx24CommandLineModuleManager4Impl22ensureHelpModuleExistsEv(ptr noundef nonnull align 8 dereferenceable(129) %3)
  %4 = load ptr, ptr %0, align 8
  %5 = getelementptr inbounds i8, ptr %4, i64 112
  %6 = load ptr, ptr %5, align 8
  tail call void @_ZN3gmx21CommandLineHelpModule19setOutputRedirectorEPNS_21IFileOutputRedirectorE(ptr noundef nonnull align 8 dereferenceable(16) %6, ptr noundef %1)
  ret void
}